; Function Attrs: nounwind uwtable
define ptr @l_Lake_instToToml_x3fOptionOfToToml___rarg(ptr noundef %0, ptr noundef %1) #0 {
  %3 = ptrtoint ptr %1 to i64
  %4 = and i64 %3, 1
  %.not.i24 = icmp eq i64 %4, 0
  br i1 %.not.i24, label %8, label %5

5:                                                ; preds = %2
  %6 = lshr i64 %3, 1
  %7 = trunc i64 %6 to i32
  br label %lean_obj_tag.exit

8:                                                ; preds = %2
  %9 = getelementptr i8, ptr %1, i64 4
  %.val.i = load i32, ptr %9, align 4
  %10 = lshr i32 %.val.i, 24
  br label %lean_obj_tag.exit

lean_obj_tag.exit:                                ; preds = %5, %8
  %.0.i = phi i32 [ %7, %5 ], [ %10, %8 ]
  %11 = icmp eq i32 %.0.i, 0
  br i1 %11, label %12, label %22

12:                                               ; preds = %lean_obj_tag.exit
  %13 = ptrtoint ptr %0 to i64
  %14 = and i64 %13, 1
  %.not28 = icmp eq i64 %14, 0
  br i1 %.not28, label %15, label %lean_dec.exit19

15:                                               ; preds = %12
  %16 = load i32, ptr %0, align 4, !tbaa !4
  %17 = icmp sgt i32 %16, 1
  br i1 %17, label %18, label %20, !prof !11

18:                                               ; preds = %15
  %19 = add nsw i32 %16, -1
  store i32 %19, ptr %0, align 4, !tbaa !4
  br label %lean_dec.exit19

20:                                               ; preds = %15
  %.not.i = icmp eq i32 %16, 0
  br i1 %.not.i, label %lean_dec.exit19, label %21

21:                                               ; preds = %20
  tail call void @lean_dec_ref_cold(ptr noundef nonnull %0) #4
  br label %lean_dec.exit19

22:                                               ; preds = %lean_obj_tag.exit
  %.val = load i32, ptr %1, align 4, !tbaa !4
  %23 = icmp eq i32 %.val, 1
  %24 = getelementptr i8, ptr %1, i64 8
  %.val23 = load ptr, ptr %24, align 8, !tbaa !9
  br i1 %23, label %25, label %27

25:                                               ; preds = %22
  %26 = tail call ptr @lean_apply_1(ptr noundef %0, ptr noundef %.val23) #4
  store ptr %26, ptr %24, align 8, !tbaa !9
  br label %lean_dec.exit19

27:                                               ; preds = %22
  %28 = ptrtoint ptr %.val23 to i64
  %29 = and i64 %28, 1
  %.not = icmp eq i64 %29, 0
  br i1 %.not, label %30, label %lean_inc.exit

30:                                               ; preds = %27
  %.val.i25 = load i32, ptr %.val23, align 4, !tbaa !4
  %31 = icmp sgt i32 %.val.i25, 0
  br i1 %31, label %32, label %34, !prof !11

32:                                               ; preds = %30
  %33 = add nuw i32 %.val.i25, 1
  store i32 %33, ptr %.val23, align 4, !tbaa !4
  br label %lean_inc.exit

34:                                               ; preds = %30
  %.not.i26 = icmp eq i32 %.val.i25, 0
  br i1 %.not.i26, label %lean_inc.exit, label %35

35:                                               ; preds = %34
  tail call void @lean_inc_ref_cold(ptr noundef nonnull %.val23) #4
  br label %lean_inc.exit

lean_inc.exit:                                    ; preds = %35, %34, %32, %27
  br i1 %.not.i24, label %36, label %lean_dec.exit

36:                                               ; preds = %lean_inc.exit
  %37 = load i32, ptr %1, align 4, !tbaa !4
  %38 = icmp sgt i32 %37, 1
  br i1 %38, label %39, label %41, !prof !11

39:                                               ; preds = %36
  %40 = add nsw i32 %37, -1
  store i32 %40, ptr %1, align 4, !tbaa !4
  br label %lean_dec.exit

41:                                               ; preds = %36
  %.not.i20 = icmp eq i32 %37, 0
  br i1 %.not.i20, label %lean_dec.exit, label %42

42:                                               ; preds = %41
  tail call void @lean_dec_ref_cold(ptr noundef nonnull %1) #4
  br label %lean_dec.exit

lean_dec.exit:                                    ; preds = %42, %41, %39, %lean_inc.exit
  %43 = tail call ptr @lean_apply_1(ptr noundef %0, ptr noundef %.val23) #4
  tail call void @lean_inc_heartbeat() #4
  %44 = tail call noalias ptr @mi_malloc_small(i64 noundef 16) #4
  %45 = icmp eq ptr %44, null
  br i1 %45, label %46, label %lean_alloc_ctor.exit

46:                                               ; preds = %lean_dec.exit
  tail call void @lean_internal_panic_out_of_memory() #5
  unreachable

lean_alloc_ctor.exit:                             ; preds = %lean_dec.exit
  %47 = getelementptr inbounds nuw i8, ptr %44, i64 4
  store i32 1, ptr %44, align 4, !tbaa !4
  store i32 16842768, ptr %47, align 4
  %48 = getelementptr inbounds nuw i8, ptr %44, i64 8
  store ptr %43, ptr %48, align 8, !tbaa !9
  br label %lean_dec.exit19

lean_dec.exit19:                                  ; preds = %12, %18, %20, %21, %25, %lean_alloc_ctor.exit
  %.0 = phi ptr [ %1, %25 ], [ %44, %lean_alloc_ctor.exit ], [ inttoptr (i64 1 to ptr), %21 ], [ inttoptr (i64 1 to ptr), %20 ], [ inttoptr (i64 1 to ptr), %18 ], [ inttoptr (i64 1 to ptr), %12 ]
  ret ptr %.0
}